; Function Attrs: mustprogress uwtable
define dso_local void @_ZN20MultiChoiceAttributeC2ENSt7__cxx1112basic_stringIcSt11char_traitsIcESaIcEEEiSt6vectorIS5_SaIS5_EE(ptr noundef nonnull align 8 dereferenceable(72) %0, ptr noundef nonnull %1, i32 noundef %2, ptr noundef %3) unnamed_addr #0 align 2 personality ptr @__gxx_personality_v0 {
  %5 = alloca %"class.std::__cxx11::basic_string", align 8
  call void @_ZNSt7__cxx1112basic_stringIcSt11char_traitsIcESaIcEEC1ERKS4_(ptr noundef nonnull align 8 dereferenceable(32) %5, ptr noundef nonnull align 8 dereferenceable(32) %1)
  store ptr getelementptr inbounds ({ [3 x ptr] }, ptr @_ZTV9Attribute, i64 0, i32 0, i64 2), ptr %0, align 8
  %6 = getelementptr inbounds i8, ptr %0, i64 8
  invoke void @_ZNSt7__cxx1112basic_stringIcSt11char_traitsIcESaIcEEC1ERKS4_(ptr noundef nonnull align 8 dereferenceable(32) %6, ptr noundef nonnull align 8 dereferenceable(32) %5)
          to label %7 unwind label %11

7:                                                ; preds = %4
  %8 = getelementptr inbounds i8, ptr %0, i64 40
  store i32 %2, ptr %8, align 8
  call void @_ZNSt7__cxx1112basic_stringIcSt11char_traitsIcESaIcEED1Ev(ptr noundef nonnull align 8 dereferenceable(32) %5) #8
  store ptr getelementptr inbounds ({ [3 x ptr] }, ptr @_ZTV20MultiChoiceAttribute, i64 0, i32 0, i64 2), ptr %0, align 8
  %9 = getelementptr inbounds i8, ptr %0, i64 48
  invoke void @_ZNSt6vectorINSt7__cxx1112basic_stringIcSt11char_traitsIcESaIcEEESaIS5_EEC2ERKS7_(ptr noundef nonnull align 8 dereferenceable(24) %9, ptr noundef nonnull align 8 dereferenceable(24) %3)
          to label %10 unwind label %13

10:                                               ; preds = %7
  ret void

11:                                               ; preds = %4
  %12 = landingpad { ptr, i32 }
          cleanup
  br label %15

13:                                               ; preds = %7
  %14 = landingpad { ptr, i32 }
          cleanup
  store ptr getelementptr inbounds ({ [3 x ptr] }, ptr @_ZTV9Attribute, i64 0, i32 0, i64 2), ptr %0, align 8
  br label %15

15:                                               ; preds = %13, %11
  %.sink = phi ptr [ %6, %13 ], [ %5, %11 ]
  %.pn = phi { ptr, i32 } [ %14, %13 ], [ %12, %11 ]
  call void @_ZNSt7__cxx1112basic_stringIcSt11char_traitsIcESaIcEED1Ev(ptr noundef nonnull align 8 dereferenceable(32) %.sink) #8
  resume { ptr, i32 } %.pn
}